target datalayout = "e-m:e-p270:32:32-p271:32:32-p272:64:64-i64:64-i128:128-f80:128-n8:16:32:64-S128"
target triple = "x86_64-pc-linux-gnu"

; Function Attrs: nounwind uwtable
define internal void @pred8x8_128_dc_9_c(ptr noundef %0, i64 noundef %1) #1 {
  %3 = alloca ptr, align 8
  %4 = alloca i64, align 8
  %5 = alloca i32, align 4
  %6 = alloca i64, align 8
  %7 = alloca ptr, align 8
  store ptr %0, ptr %3, align 8, !tbaa !12
  store i64 %1, ptr %4, align 8, !tbaa !14
  call void @llvm.lifetime.start.p0(i64 4, ptr %5) #9
  call void @llvm.lifetime.start.p0(i64 8, ptr %6) #9
  store i64 72058693566333184, ptr %6, align 8, !tbaa !14
  call void @llvm.lifetime.start.p0(i64 8, ptr %7) #9
  %8 = load ptr, ptr %3, align 8, !tbaa !12
  store ptr %8, ptr %7, align 8, !tbaa !16
  %9 = load i64, ptr %4, align 8, !tbaa !14
  %10 = ashr i64 %9, 1
  store i64 %10, ptr %4, align 8, !tbaa !14
  store i32 0, ptr %5, align 4, !tbaa !9
  br label %11

11:                                               ; preds = %29, %2
  %12 = load i32, ptr %5, align 4, !tbaa !9
  %13 = icmp slt i32 %12, 8
  br i1 %13, label %14, label %32

14:                                               ; preds = %11
  %15 = load ptr, ptr %7, align 8, !tbaa !16
  %16 = load i32, ptr %5, align 4, !tbaa !9
  %17 = sext i32 %16 to i64
  %18 = load i64, ptr %4, align 8, !tbaa !14
  %19 = mul nsw i64 %17, %18
  %20 = getelementptr inbounds i16, ptr %15, i64 %19
  %21 = getelementptr inbounds i64, ptr %20, i64 0
  store i64 72058693566333184, ptr %21, align 8, !tbaa !18
  %22 = load ptr, ptr %7, align 8, !tbaa !16
  %23 = load i32, ptr %5, align 4, !tbaa !9
  %24 = sext i32 %23 to i64
  %25 = load i64, ptr %4, align 8, !tbaa !14
  %26 = mul nsw i64 %24, %25
  %27 = getelementptr inbounds i16, ptr %22, i64 %26
  %28 = getelementptr inbounds i64, ptr %27, i64 1
  store i64 72058693566333184, ptr %28, align 8, !tbaa !18
  br label %29

29:                                               ; preds = %14
  %30 = load i32, ptr %5, align 4, !tbaa !9
  %31 = add nsw i32 %30, 1
  store i32 %31, ptr %5, align 4, !tbaa !9
  br label %11, !llvm.loop !52

32:                                               ; preds = %11
  call void @llvm.lifetime.end.p0(i64 8, ptr %7) #9
  call void @llvm.lifetime.end.p0(i64 8, ptr %6) #9
  call void @llvm.lifetime.end.p0(i64 4, ptr %5) #9
  ret void
}

; Function Attrs: nounwind uwtable
define internal void @pred8x16_128_dc_9_c(ptr noundef %0, i64 noundef %1) #1 {
  %3 = alloca ptr, align 8
  %4 = alloca i64, align 8
  store ptr %0, ptr %3, align 8, !tbaa !12
  store i64 %1, ptr %4, align 8, !tbaa !14
  %5 = load ptr, ptr %3, align 8, !tbaa !12
  %6 = load i64, ptr %4, align 8, !tbaa !14
  call void @pred8x8_128_dc_9_c(ptr noundef %5, i64 noundef %6)
  %7 = load ptr, ptr %3, align 8, !tbaa !12
  %8 = load i64, ptr %4, align 8, !tbaa !14
  %9 = mul nsw i64 8, %8
  %10 = getelementptr inbounds i8, ptr %7, i64 %9
  %11 = load i64, ptr %4, align 8, !tbaa !14
  call void @pred8x8_128_dc_9_c(ptr noundef %10, i64 noundef %11)
  ret void
}