; Function Attrs: nofree norecurse nosync nounwind memory(argmem: write) uwtable
define internal void @pred8x16_128_dc_9_c(ptr noundef writeonly captures(none) %0, i64 noundef %1) #4 {
  %3 = ashr i64 %1, 1
  br label %4

4:                                                ; preds = %4, %2
  %indvars.iv.i = phi i64 [ 0, %2 ], [ %indvars.iv.next.i, %4 ]
  %5 = mul nsw i64 %indvars.iv.i, %3
  %6 = getelementptr inbounds i16, ptr %0, i64 %5
  store i64 72058693566333184, ptr %6, align 8, !tbaa !8
  %7 = getelementptr inbounds nuw i8, ptr %6, i64 8
  store i64 72058693566333184, ptr %7, align 8, !tbaa !8
  %indvars.iv.next.i = add nuw nsw i64 %indvars.iv.i, 1
  %exitcond.not.i = icmp eq i64 %indvars.iv.next.i, 8
  br i1 %exitcond.not.i, label %pred8x8_128_dc_9_c.exit, label %4, !llvm.loop !42

pred8x8_128_dc_9_c.exit:                          ; preds = %4
  %8 = shl nsw i64 %1, 3
  %9 = getelementptr inbounds i8, ptr %0, i64 %8
  br label %10

10:                                               ; preds = %10, %pred8x8_128_dc_9_c.exit
  %indvars.iv.i4 = phi i64 [ 0, %pred8x8_128_dc_9_c.exit ], [ %indvars.iv.next.i5, %10 ]
  %11 = mul nsw i64 %indvars.iv.i4, %3
  %12 = getelementptr inbounds i16, ptr %9, i64 %11
  store i64 72058693566333184, ptr %12, align 8, !tbaa !8
  %13 = getelementptr inbounds nuw i8, ptr %12, i64 8
  store i64 72058693566333184, ptr %13, align 8, !tbaa !8
  %indvars.iv.next.i5 = add nuw nsw i64 %indvars.iv.i4, 1
  %exitcond.not.i6 = icmp eq i64 %indvars.iv.next.i5, 8
  br i1 %exitcond.not.i6, label %pred8x8_128_dc_9_c.exit7, label %10, !llvm.loop !42

pred8x8_128_dc_9_c.exit7:                         ; preds = %10
  ret void
}